; Function Attrs: null_pointer_is_valid sspstrong uwtable
define internal i32 @dissect_rtse_T_t61String(i1 noundef zeroext %0, ptr noundef %1, i32 noundef %2, ptr noundef %3, ptr noundef %4, i32 noundef %5) #0 {
  %7 = alloca ptr, align 8
  call void @llvm.lifetime.start.p0(i64 8, ptr nonnull %7) #4
  store ptr null, ptr %7, align 8
  %8 = call i32 @dissect_ber_restricted_string(i1 noundef zeroext %0, i32 noundef 20, ptr noundef %3, ptr noundef %4, ptr noundef %1, i32 noundef %2, i32 noundef %5, ptr noundef nonnull %7)
  %.b9 = load i1, ptr @open_request, align 1
  %9 = load ptr, ptr %7, align 8
  %10 = icmp ne ptr %9, null
  %or.cond = select i1 %.b9, i1 %10, i1 false
  br i1 %or.cond, label %11, label %20

11:                                               ; preds = %6
  %12 = getelementptr inbounds nuw i8, ptr %3, i64 16
  %13 = load ptr, ptr %12, align 8
  %14 = getelementptr inbounds nuw i8, ptr %13, i64 8
  %15 = load ptr, ptr %14, align 8
  %16 = getelementptr inbounds nuw i8, ptr %13, i64 408
  %17 = load ptr, ptr %16, align 8
  %18 = call i32 @tvb_reported_length(ptr noundef nonnull %9)
  %19 = call ptr @tvb_get_string_enc(ptr noundef %17, ptr noundef nonnull %9, i32 noundef 0, i32 noundef %18, i32 noundef 54)
  call void (ptr, i32, ptr, ...) @col_append_fstr(ptr noundef %15, i32 noundef 25, ptr noundef nonnull @.str.109, ptr noundef %19)
  br label %20

20:                                               ; preds = %11, %6
  call void @llvm.lifetime.end.p0(i64 8, ptr nonnull %7) #4
  ret i32 %8
}